; Function Attrs: mustprogress uwtable
define hidden void @_ZN3sat10clause_set6insertERNS_6clauseE(ptr noundef nonnull align 8 dereferenceable(16) %this, ptr noundef nonnull align 4 dereferenceable(20) %c) local_unnamed_addr #3 align 2 {
entry:
  %0 = load i32, ptr %c, align 4
  %add = add i32 %0, 1
  %1 = load ptr, ptr %this, align 8
  %cmp.i.i = icmp eq ptr %1, null
  br i1 %cmp.i.i, label %_ZNK6vectorIjLb0EjE4sizeEv.exit.i, label %_ZNK6vectorIjLb0EjE4sizeEv.exit.thread.i

_ZNK6vectorIjLb0EjE4sizeEv.exit.i:                ; preds = %entry
  %cmp.not.i = icmp eq i32 %add, 0
  br i1 %cmp.not.i, label %_ZN6vectorIjLb0EjE7reserveEjRKj.exit, label %while.cond.i.i.preheader

_ZNK6vectorIjLb0EjE4sizeEv.exit.thread.i:         ; preds = %entry
  %arrayidx.i.i = getelementptr inbounds i8, ptr %1, i64 -4
  %2 = load i32, ptr %arrayidx.i.i, align 4
  %cmp4.i = icmp ult i32 %2, %add
  br i1 %cmp4.i, label %while.cond.i.i.preheader, label %_ZN6vectorIjLb0EjE7reserveEjRKj.exit

while.cond.i.i.preheader:                         ; preds = %_ZNK6vectorIjLb0EjE4sizeEv.exit.i, %_ZNK6vectorIjLb0EjE4sizeEv.exit.thread.i
  %.ph = phi ptr [ %1, %_ZNK6vectorIjLb0EjE4sizeEv.exit.thread.i ], [ null, %_ZNK6vectorIjLb0EjE4sizeEv.exit.i ]
  %retval.0.i16.i.i.ph = phi i32 [ %2, %_ZNK6vectorIjLb0EjE4sizeEv.exit.thread.i ], [ 0, %_ZNK6vectorIjLb0EjE4sizeEv.exit.i ]
  br label %while.cond.i.i

while.cond.i.i:                                   ; preds = %while.cond.i.i.preheader, %while.body.i.i
  %3 = phi ptr [ %.pr.pre.i.i, %while.body.i.i ], [ %.ph, %while.cond.i.i.preheader ]
  %cmp.i10.i.i = icmp eq ptr %3, null
  br i1 %cmp.i10.i.i, label %_ZNK6vectorIjLb0EjE8capacityEv.exit.i.i, label %if.end.i11.i.i

if.end.i11.i.i:                                   ; preds = %while.cond.i.i
  %arrayidx.i12.i.i = getelementptr inbounds i8, ptr %3, i64 -8
  %4 = load i32, ptr %arrayidx.i12.i.i, align 4
  br label %_ZNK6vectorIjLb0EjE8capacityEv.exit.i.i

_ZNK6vectorIjLb0EjE8capacityEv.exit.i.i:          ; preds = %if.end.i11.i.i, %while.cond.i.i
  %retval.0.i13.i.i = phi i32 [ %4, %if.end.i11.i.i ], [ 0, %while.cond.i.i ]
  %cmp3.i.i = icmp ult i32 %retval.0.i13.i.i, %add
  br i1 %cmp3.i.i, label %while.body.i.i, label %while.end.i.i

while.body.i.i:                                   ; preds = %_ZNK6vectorIjLb0EjE8capacityEv.exit.i.i
  tail call void @_ZN6vectorIjLb0EjE13expand_vectorEv(ptr noundef nonnull align 8 dereferenceable(8) %this)
  %.pr.pre.i.i = load ptr, ptr %this, align 8
  br label %while.cond.i.i, !llvm.loop !4

while.end.i.i:                                    ; preds = %_ZNK6vectorIjLb0EjE8capacityEv.exit.i.i
  %arrayidx.i2.i = getelementptr inbounds i8, ptr %3, i64 -4
  store i32 %add, ptr %arrayidx.i2.i, align 4
  %5 = load ptr, ptr %this, align 8
  %cmp8.not17.i.i = icmp eq i32 %retval.0.i16.i.i.ph, %add
  br i1 %cmp8.not17.i.i, label %_ZN6vectorIjLb0EjE7reserveEjRKj.exit, label %for.body.preheader.i.i

for.body.preheader.i.i:                           ; preds = %while.end.i.i
  %idx.ext6.i.i = zext i32 %add to i64
  %idx.ext.i.i = zext i32 %retval.0.i16.i.i.ph to i64
  %add.ptr.i.i = getelementptr i32, ptr %5, i64 %idx.ext.i.i
  %6 = shl nuw nsw i64 %idx.ext6.i.i, 2
  %7 = add nsw i64 %6, -4
  %8 = shl nuw nsw i64 %idx.ext.i.i, 2
  %9 = sub nsw i64 %7, %8
  %10 = add nsw i64 %9, 4
  tail call void @llvm.memset.p0.i64(ptr align 4 %add.ptr.i.i, i8 -1, i64 %10, i1 false)
  %.pre = load ptr, ptr %this, align 8
  br label %_ZN6vectorIjLb0EjE7reserveEjRKj.exit

_ZN6vectorIjLb0EjE7reserveEjRKj.exit:             ; preds = %for.body.preheader.i.i, %_ZNK6vectorIjLb0EjE4sizeEv.exit.i, %_ZNK6vectorIjLb0EjE4sizeEv.exit.thread.i, %while.end.i.i
  %11 = phi ptr [ %.pre, %for.body.preheader.i.i ], [ null, %_ZNK6vectorIjLb0EjE4sizeEv.exit.i ], [ %1, %_ZNK6vectorIjLb0EjE4sizeEv.exit.thread.i ], [ %5, %while.end.i.i ]
  %idxprom.i = zext i32 %0 to i64
  %arrayidx.i = getelementptr inbounds i32, ptr %11, i64 %idxprom.i
  %12 = load i32, ptr %arrayidx.i, align 4
  %cmp.not = icmp eq i32 %12, -1
  br i1 %cmp.not, label %if.end, label %return

if.end:                                           ; preds = %_ZN6vectorIjLb0EjE7reserveEjRKj.exit
  %m_set = getelementptr inbounds i8, ptr %this, i64 8
  %13 = load ptr, ptr %m_set, align 8
  %cmp.i = icmp eq ptr %13, null
  br i1 %cmp.i, label %_ZNK6vectorIPN3sat6clauseELb0EjE4sizeEv.exit, label %if.end.i

if.end.i:                                         ; preds = %if.end
  %arrayidx.i4 = getelementptr inbounds i8, ptr %13, i64 -4
  %14 = load i32, ptr %arrayidx.i4, align 4
  br label %_ZNK6vectorIPN3sat6clauseELb0EjE4sizeEv.exit

_ZNK6vectorIPN3sat6clauseELb0EjE4sizeEv.exit:     ; preds = %if.end, %if.end.i
  %retval.0.i = phi i32 [ %14, %if.end.i ], [ 0, %if.end ]
  store i32 %retval.0.i, ptr %arrayidx.i, align 4
  %15 = load ptr, ptr %m_set, align 8
  %cmp.i7 = icmp eq ptr %15, null
  br i1 %cmp.i7, label %if.then.i, label %lor.lhs.false.i

lor.lhs.false.i:                                  ; preds = %_ZNK6vectorIPN3sat6clauseELb0EjE4sizeEv.exit
  %arrayidx.i8 = getelementptr inbounds i8, ptr %15, i64 -4
  %16 = load i32, ptr %arrayidx.i8, align 4
  %arrayidx4.i = getelementptr inbounds i8, ptr %15, i64 -8
  %17 = load i32, ptr %arrayidx4.i, align 4
  %cmp5.i = icmp eq i32 %16, %17
  br i1 %cmp5.i, label %if.then.i, label %_ZN6vectorIPN3sat6clauseELb0EjE9push_backEOS2_.exit

if.then.i:                                        ; preds = %lor.lhs.false.i, %_ZNK6vectorIPN3sat6clauseELb0EjE4sizeEv.exit
  tail call void @_ZN6vectorIPN3sat6clauseELb0EjE13expand_vectorEv(ptr noundef nonnull align 8 dereferenceable(8) %m_set)
  %.pre.i = load ptr, ptr %m_set, align 8
  %arrayidx8.phi.trans.insert.i = getelementptr inbounds i8, ptr %.pre.i, i64 -4
  %.pre1.i = load i32, ptr %arrayidx8.phi.trans.insert.i, align 4
  br label %_ZN6vectorIPN3sat6clauseELb0EjE9push_backEOS2_.exit

_ZN6vectorIPN3sat6clauseELb0EjE9push_backEOS2_.exit: ; preds = %lor.lhs.false.i, %if.then.i
  %18 = phi i32 [ %.pre1.i, %if.then.i ], [ %16, %lor.lhs.false.i ]
  %19 = phi ptr [ %.pre.i, %if.then.i ], [ %15, %lor.lhs.false.i ]
  %idx.ext.i = zext i32 %18 to i64
  %add.ptr.i = getelementptr inbounds ptr, ptr %19, i64 %idx.ext.i
  store ptr %c, ptr %add.ptr.i, align 8
  %20 = load ptr, ptr %m_set, align 8
  %arrayidx10.i = getelementptr inbounds i8, ptr %20, i64 -4
  %21 = load i32, ptr %arrayidx10.i, align 4
  %inc.i = add i32 %21, 1
  store i32 %inc.i, ptr %arrayidx10.i, align 4
  br label %return

return:                                           ; preds = %_ZN6vectorIjLb0EjE7reserveEjRKj.exit, %_ZN6vectorIPN3sat6clauseELb0EjE9push_backEOS2_.exit
  ret void
}